target datalayout = "e-m:e-p270:32:32-p271:32:32-p272:64:64-i64:64-i128:128-f80:128-n8:16:32:64-S128"
target triple = "x86_64-pc-linux-gnu"

; Function Attrs: inlinehint nounwind sspstrong willreturn memory(none) uwtable
define internal zeroext i1 @RB_NIL_P(i64 noundef %0) #5 {
  %2 = alloca i64, align 8
  store i64 %0, ptr %2, align 8, !tbaa !11
  %3 = load i64, ptr %2, align 8, !tbaa !11
  %4 = icmp eq i64 %3, 4
  ret i1 %4
}

; Function Attrs: inlinehint nounwind sspstrong uwtable
define internal i32 @rb_check_arity(i32 noundef %0, i32 noundef %1, i32 noundef %2) #4 {
  %4 = alloca i32, align 4
  %5 = alloca i32, align 4
  %6 = alloca i32, align 4
  store i32 %0, ptr %4, align 4, !tbaa !20
  store i32 %1, ptr %5, align 4, !tbaa !20
  store i32 %2, ptr %6, align 4, !tbaa !20
  %7 = load i32, ptr %4, align 4, !tbaa !20
  %8 = load i32, ptr %5, align 4, !tbaa !20
  %9 = icmp slt i32 %7, %8
  br i1 %9, label %17, label %10

10:                                               ; preds = %3
  %11 = load i32, ptr %6, align 4, !tbaa !20
  %12 = icmp ne i32 %11, -1
  br i1 %12, label %13, label %21

13:                                               ; preds = %10
  %14 = load i32, ptr %4, align 4, !tbaa !20
  %15 = load i32, ptr %6, align 4, !tbaa !20
  %16 = icmp sgt i32 %14, %15
  br i1 %16, label %17, label %21

17:                                               ; preds = %13, %3
  %18 = load i32, ptr %4, align 4, !tbaa !20
  %19 = load i32, ptr %5, align 4, !tbaa !20
  %20 = load i32, ptr %6, align 4, !tbaa !20
  call void @rb_error_arity(i32 noundef %18, i32 noundef %19, i32 noundef %20) #23
  unreachable

21:                                               ; preds = %13, %10
  %22 = load i32, ptr %4, align 4, !tbaa !20
  ret i32 %22
}

; Function Attrs: nounwind sspstrong uwtable
define internal i64 @time_localtime_m(i32 noundef %0, ptr noundef %1, i64 noundef %2) #0 {
  %4 = alloca i64, align 8
  %5 = alloca i32, align 4
  %6 = alloca ptr, align 8
  %7 = alloca i64, align 8
  %8 = alloca i64, align 8
  %9 = alloca i32, align 4
  store i32 %0, ptr %5, align 4, !tbaa !20
  store ptr %1, ptr %6, align 8, !tbaa !16
  store i64 %2, ptr %7, align 8, !tbaa !11
  call void @llvm.lifetime.start.p0(i64 8, ptr %8) #22
  %10 = load i32, ptr %5, align 4, !tbaa !20
  %11 = call i32 @rb_check_arity(i32 noundef %10, i32 noundef 0, i32 noundef 1)
  %12 = icmp ne i32 %11, 0
  br i1 %12, label %13, label %22

13:                                               ; preds = %3
  %14 = load ptr, ptr %6, align 8, !tbaa !16
  %15 = getelementptr i64, ptr %14, i64 0
  %16 = load i64, ptr %15, align 8, !tbaa !11
  store i64 %16, ptr %8, align 8, !tbaa !11
  %17 = call zeroext i1 @RB_NIL_P(i64 noundef %16) #24
  br i1 %17, label %22, label %18

18:                                               ; preds = %13
  %19 = load i64, ptr %7, align 8, !tbaa !11
  %20 = load i64, ptr %8, align 8, !tbaa !11
  %21 = call i64 @time_zonelocal(i64 noundef %19, i64 noundef %20)
  store i64 %21, ptr %4, align 8
  store i32 1, ptr %9, align 4
  br label %25

22:                                               ; preds = %13, %3
  %23 = load i64, ptr %7, align 8, !tbaa !11
  %24 = call i64 @time_localtime(i64 noundef %23)
  store i64 %24, ptr %4, align 8
  store i32 1, ptr %9, align 4
  br label %25

25:                                               ; preds = %22, %18
  call void @llvm.lifetime.end.p0(i64 8, ptr %8) #22
  %26 = load i64, ptr %4, align 8
  ret i64 %26
}