; Function Attrs: nounwind sspstrong uwtable
define internal noundef i64 @time_localtime_m(i32 noundef %0, ptr noundef readonly captures(none) %1, i64 noundef returned %2) #1 {
  %or.cond.i = icmp ugt i32 %0, 1
  br i1 %or.cond.i, label %4, label %rb_check_arity.exit

4:                                                ; preds = %3
  tail call void @rb_error_arity(i32 noundef %0, i32 noundef 0, i32 noundef 1) #22
  unreachable

rb_check_arity.exit:                              ; preds = %3
  %.not = icmp eq i32 %0, 0
  br i1 %.not, label %10, label %5

5:                                                ; preds = %rb_check_arity.exit
  %6 = load i64, ptr %1, align 8, !tbaa !11
  %7 = icmp eq i64 %6, 4
  br i1 %7, label %10, label %8

8:                                                ; preds = %5
  %9 = tail call fastcc i64 @time_zonelocal(i64 noundef %2, i64 noundef %6)
  br label %12

10:                                               ; preds = %5, %rb_check_arity.exit
  %11 = tail call fastcc i64 @time_localtime(i64 noundef %2)
  br label %12

12:                                               ; preds = %10, %8
  ret i64 %2
}